; Function Attrs: mustprogress uwtable
define hidden noundef zeroext i1 @_ZN2bv6solver9find_wposEi(ptr noundef nonnull align 8 dereferenceable(640) %this, i32 noundef %v) local_unnamed_addr #3 align 2 {
entry:
  %m_bits = getelementptr inbounds i8, ptr %this, i64 456
  %0 = load ptr, ptr %m_bits, align 8
  %idxprom.i = zext i32 %v to i64
  %arrayidx.i = getelementptr inbounds %class.svector.3, ptr %0, i64 %idxprom.i
  %1 = load ptr, ptr %arrayidx.i, align 8
  %cmp.i = icmp eq ptr %1, null
  br i1 %cmp.i, label %for.end, label %_ZNK6vectorIN3sat7literalELb0EjE4sizeEv.exit

_ZNK6vectorIN3sat7literalELb0EjE4sizeEv.exit:     ; preds = %entry
  %arrayidx.i9 = getelementptr inbounds i8, ptr %1, i64 -4
  %2 = load i32, ptr %arrayidx.i9, align 4
  %m_wpos = getelementptr inbounds i8, ptr %this, i64 464
  %3 = load ptr, ptr %m_wpos, align 8
  %arrayidx.i11 = getelementptr inbounds i32, ptr %3, i64 %idxprom.i
  %cmp16 = icmp eq i32 %2, 0
  br i1 %cmp16, label %for.end, label %for.body.lr.ph

for.body.lr.ph:                                   ; preds = %_ZNK6vectorIN3sat7literalELb0EjE4sizeEv.exit
  %4 = load i32, ptr %arrayidx.i11, align 4
  %m_solver.i = getelementptr inbounds i8, ptr %this, i64 24
  %5 = load ptr, ptr %m_solver.i, align 8
  %m_assignment.i = getelementptr inbounds i8, ptr %5, i64 3440
  %6 = load ptr, ptr %m_assignment.i, align 8
  %rem32 = urem i32 %4, %2
  %idxprom.i1233 = zext i32 %rem32 to i64
  %arrayidx.i1334 = getelementptr inbounds %"class.sat::literal", ptr %1, i64 %idxprom.i1233
  %agg.tmp.sroa.0.0.copyload35 = load i32, ptr %arrayidx.i1334, align 4
  %idxprom.i.i36 = zext i32 %agg.tmp.sroa.0.0.copyload35 to i64
  %arrayidx.i.i37 = getelementptr inbounds i32, ptr %6, i64 %idxprom.i.i36
  %7 = load i32, ptr %arrayidx.i.i37, align 4
  %cmp738 = icmp eq i32 %7, 0
  br i1 %cmp738, label %if.then, label %for.cond

for.cond:                                         ; preds = %for.body.lr.ph, %for.body
  %i.01739 = phi i32 [ %inc, %for.body ], [ 0, %for.body.lr.ph ]
  %inc = add nuw i32 %i.01739, 1
  %exitcond = icmp eq i32 %inc, %2
  br i1 %exitcond, label %for.end, label %for.body, !llvm.loop !12

for.body:                                         ; preds = %for.cond
  %add = add i32 %4, %inc
  %rem = urem i32 %add, %2
  %idxprom.i12 = zext i32 %rem to i64
  %arrayidx.i13 = getelementptr inbounds %"class.sat::literal", ptr %1, i64 %idxprom.i12
  %agg.tmp.sroa.0.0.copyload = load i32, ptr %arrayidx.i13, align 4
  %idxprom.i.i = zext i32 %agg.tmp.sroa.0.0.copyload to i64
  %arrayidx.i.i = getelementptr inbounds i32, ptr %6, i64 %idxprom.i.i
  %8 = load i32, ptr %arrayidx.i.i, align 4
  %cmp7 = icmp eq i32 %8, 0
  br i1 %cmp7, label %if.then.loopexit, label %for.cond, !llvm.loop !12

if.then.loopexit:                                 ; preds = %for.body
  %cmp.le = icmp uge i32 %inc, %2
  br label %if.then

if.then:                                          ; preds = %if.then.loopexit, %for.body.lr.ph
  %cmp18.lcssa = phi i1 [ false, %for.body.lr.ph ], [ %cmp.le, %if.then.loopexit ]
  %rem.lcssa = phi i32 [ %rem32, %for.body.lr.ph ], [ %rem, %if.then.loopexit ]
  store i32 %rem.lcssa, ptr %arrayidx.i11, align 4
  br label %return

for.end:                                          ; preds = %for.cond, %entry, %_ZNK6vectorIN3sat7literalELb0EjE4sizeEv.exit
  tail call void @_ZN2bv6solver12fixed_var_ehEi(ptr noundef nonnull align 8 dereferenceable(640) %this, i32 noundef %v)
  br label %return

return:                                           ; preds = %for.end, %if.then
  %cmp15 = phi i1 [ true, %for.end ], [ %cmp18.lcssa, %if.then ]
  ret i1 %cmp15
}